; Function Attrs: null_pointer_is_valid sspstrong uwtable
define internal range(i32 0, 39) i32 @cigi3_3_add_symbol_control(ptr noundef %0, ptr readnone captures(none) %1, ptr noundef %2, ptr readnone captures(none) %3) #0 {
  %5 = load i32, ptr @cigi_minor_version, align 4
  %6 = icmp slt i32 %5, 3
  br i1 %6, label %65, label %7

7:                                                ; preds = %4
  %8 = load i32, ptr @hf_cigi3_3_symbol_control_symbol_id, align 4
  %.b92 = load i1, ptr @cigi_byte_order, align 4
  %9 = select i1 %.b92, i32 -2147483648, i32 0
  %10 = tail call ptr @proto_tree_add_item(ptr noundef %2, i32 noundef %8, ptr noundef %0, i32 noundef 0, i32 noundef 2, i32 noundef %9)
  %11 = load i32, ptr @hf_cigi3_3_symbol_control_symbol_state, align 4
  %.b91 = load i1, ptr @cigi_byte_order, align 4
  %12 = select i1 %.b91, i32 -2147483648, i32 0
  %13 = tail call ptr @proto_tree_add_item(ptr noundef %2, i32 noundef %11, ptr noundef %0, i32 noundef 2, i32 noundef 1, i32 noundef %12)
  %14 = load i32, ptr @hf_cigi3_3_symbol_control_attach_state, align 4
  %.b90 = load i1, ptr @cigi_byte_order, align 4
  %15 = select i1 %.b90, i32 -2147483648, i32 0
  %16 = tail call ptr @proto_tree_add_item(ptr noundef %2, i32 noundef %14, ptr noundef %0, i32 noundef 2, i32 noundef 1, i32 noundef %15)
  %17 = load i32, ptr @hf_cigi3_3_symbol_control_flash_control, align 4
  %.b89 = load i1, ptr @cigi_byte_order, align 4
  %18 = select i1 %.b89, i32 -2147483648, i32 0
  %19 = tail call ptr @proto_tree_add_item(ptr noundef %2, i32 noundef %17, ptr noundef %0, i32 noundef 2, i32 noundef 1, i32 noundef %18)
  %20 = load i32, ptr @hf_cigi3_3_symbol_control_inherit_color, align 4
  %.b88 = load i1, ptr @cigi_byte_order, align 4
  %21 = select i1 %.b88, i32 -2147483648, i32 0
  %22 = tail call ptr @proto_tree_add_item(ptr noundef %2, i32 noundef %20, ptr noundef %0, i32 noundef 2, i32 noundef 1, i32 noundef %21)
  %23 = load i32, ptr @hf_cigi3_3_symbol_control_parent_symbol_ident, align 4
  %.b87 = load i1, ptr @cigi_byte_order, align 4
  %24 = select i1 %.b87, i32 -2147483648, i32 0
  %25 = tail call ptr @proto_tree_add_item(ptr noundef %2, i32 noundef %23, ptr noundef %0, i32 noundef 4, i32 noundef 2, i32 noundef %24)
  %26 = load i32, ptr @hf_cigi3_3_symbol_control_surface_ident, align 4
  %.b86 = load i1, ptr @cigi_byte_order, align 4
  %27 = select i1 %.b86, i32 -2147483648, i32 0
  %28 = tail call ptr @proto_tree_add_item(ptr noundef %2, i32 noundef %26, ptr noundef %0, i32 noundef 6, i32 noundef 2, i32 noundef %27)
  %29 = load i32, ptr @hf_cigi3_3_symbol_control_layer, align 4
  %.b85 = load i1, ptr @cigi_byte_order, align 4
  %30 = select i1 %.b85, i32 -2147483648, i32 0
  %31 = tail call ptr @proto_tree_add_item(ptr noundef %2, i32 noundef %29, ptr noundef %0, i32 noundef 8, i32 noundef 1, i32 noundef %30)
  %32 = load i32, ptr @hf_cigi3_3_symbol_control_flash_duty_cycle, align 4
  %.b84 = load i1, ptr @cigi_byte_order, align 4
  %33 = select i1 %.b84, i32 -2147483648, i32 0
  %34 = tail call ptr @proto_tree_add_item(ptr noundef %2, i32 noundef %32, ptr noundef %0, i32 noundef 9, i32 noundef 1, i32 noundef %33)
  %35 = load i32, ptr @hf_cigi3_3_symbol_control_flash_period, align 4
  %.b83 = load i1, ptr @cigi_byte_order, align 4
  %36 = select i1 %.b83, i32 -2147483648, i32 0
  %37 = tail call ptr @proto_tree_add_item(ptr noundef %2, i32 noundef %35, ptr noundef %0, i32 noundef 10, i32 noundef 4, i32 noundef %36)
  %38 = load i32, ptr @hf_cigi3_3_symbol_control_position_u, align 4
  %.b82 = load i1, ptr @cigi_byte_order, align 4
  %39 = select i1 %.b82, i32 -2147483648, i32 0
  %40 = tail call ptr @proto_tree_add_item(ptr noundef %2, i32 noundef %38, ptr noundef %0, i32 noundef 14, i32 noundef 4, i32 noundef %39)
  %41 = load i32, ptr @hf_cigi3_3_symbol_control_position_v, align 4
  %.b81 = load i1, ptr @cigi_byte_order, align 4
  %42 = select i1 %.b81, i32 -2147483648, i32 0
  %43 = tail call ptr @proto_tree_add_item(ptr noundef %2, i32 noundef %41, ptr noundef %0, i32 noundef 18, i32 noundef 4, i32 noundef %42)
  %44 = load i32, ptr @hf_cigi3_3_symbol_control_rotation, align 4
  %.b80 = load i1, ptr @cigi_byte_order, align 4
  %45 = select i1 %.b80, i32 -2147483648, i32 0
  %46 = tail call ptr @proto_tree_add_item(ptr noundef %2, i32 noundef %44, ptr noundef %0, i32 noundef 22, i32 noundef 4, i32 noundef %45)
  %47 = load i32, ptr @hf_cigi3_3_symbol_control_red, align 4
  %.b79 = load i1, ptr @cigi_byte_order, align 4
  %48 = select i1 %.b79, i32 -2147483648, i32 0
  %49 = tail call ptr @proto_tree_add_item(ptr noundef %2, i32 noundef %47, ptr noundef %0, i32 noundef 26, i32 noundef 1, i32 noundef %48)
  %50 = load i32, ptr @hf_cigi3_3_symbol_control_green, align 4
  %.b78 = load i1, ptr @cigi_byte_order, align 4
  %51 = select i1 %.b78, i32 -2147483648, i32 0
  %52 = tail call ptr @proto_tree_add_item(ptr noundef %2, i32 noundef %50, ptr noundef %0, i32 noundef 27, i32 noundef 1, i32 noundef %51)
  %53 = load i32, ptr @hf_cigi3_3_symbol_control_blue, align 4
  %.b77 = load i1, ptr @cigi_byte_order, align 4
  %54 = select i1 %.b77, i32 -2147483648, i32 0
  %55 = tail call ptr @proto_tree_add_item(ptr noundef %2, i32 noundef %53, ptr noundef %0, i32 noundef 28, i32 noundef 1, i32 noundef %54)
  %56 = load i32, ptr @hf_cigi3_3_symbol_control_alpha, align 4
  %.b76 = load i1, ptr @cigi_byte_order, align 4
  %57 = select i1 %.b76, i32 -2147483648, i32 0
  %58 = tail call ptr @proto_tree_add_item(ptr noundef %2, i32 noundef %56, ptr noundef %0, i32 noundef 29, i32 noundef 1, i32 noundef %57)
  %59 = load i32, ptr @hf_cigi3_3_symbol_control_scale_u, align 4
  %.b75 = load i1, ptr @cigi_byte_order, align 4
  %60 = select i1 %.b75, i32 -2147483648, i32 0
  %61 = tail call ptr @proto_tree_add_item(ptr noundef %2, i32 noundef %59, ptr noundef %0, i32 noundef 30, i32 noundef 4, i32 noundef %60)
  %62 = load i32, ptr @hf_cigi3_3_symbol_control_scale_v, align 4
  %.b = load i1, ptr @cigi_byte_order, align 4
  %63 = select i1 %.b, i32 -2147483648, i32 0
  %64 = tail call ptr @proto_tree_add_item(ptr noundef %2, i32 noundef %62, ptr noundef %0, i32 noundef 34, i32 noundef 4, i32 noundef %63)
  br label %65

65:                                               ; preds = %4, %7
  %.0 = phi i32 [ 38, %7 ], [ 0, %4 ]
  ret i32 %.0
}